target datalayout = "e-m:e-p270:32:32-p271:32:32-p272:64:64-i64:64-i128:128-f80:128-n8:16:32:64-S128"
target triple = "x86_64-pc-linux-gnu"

@.str.4 = private unnamed_addr constant [2 x i8] c"\0A\00", align 1
@.str.5 = private unnamed_addr constant [38 x i8] c"    extractinv [options] [selection]\0A\00", align 1
@.str.6 = private unnamed_addr constant [77 x i8] c"Searches the design for all cells with invertible pins controlled by a cell\0A\00", align 1
@.str.7 = private unnamed_addr constant [81 x i8] c"parameter (eg. IS_CLK_INVERTED on many Xilinx cells) and removes the parameter.\0A\00", align 1
@.str.8 = private unnamed_addr constant [78 x i8] c"If the parameter was set to 1, inserts an explicit inverter cell in front of\0A\00", align 1
@.str.9 = private unnamed_addr constant [79 x i8] c"the pin instead.  Normally used for output to ISE, which does not support the\0A\00", align 1
@.str.10 = private unnamed_addr constant [23 x i8] c"inversion parameters.\0A\00", align 1
@.str.11 = private unnamed_addr constant [76 x i8] c"To mark a cell port as invertible, use (* invertible_pin = \22param_name\22 *)\0A\00", align 1
@.str.12 = private unnamed_addr constant [70 x i8] c"on the wire in the blackbox module.  The parameter value should have\0A\00", align 1
@.str.13 = private unnamed_addr constant [68 x i8] c"the same width as the port, and will be effectively XORed with it.\0A\00", align 1
@.str.14 = private unnamed_addr constant [50 x i8] c"    -inv <celltype> <portname_out>:<portname_in>\0A\00", align 1
@.str.15 = private unnamed_addr constant [78 x i8] c"        Specifies the cell type to use for the inverters and its port names.\0A\00", align 1
@.str.16 = private unnamed_addr constant [34 x i8] c"        This option is required.\0A\00", align 1

; Function Attrs: mustprogress uwtable
define internal void @_ZN12_GLOBAL__N_114ExtractinvPass4helpEv(ptr noundef nonnull align 8 dereferenceable(104) %0) unnamed_addr #4 align 2 {
  %2 = alloca ptr, align 8
  store ptr %0, ptr %2, align 8, !tbaa !6
  call void (ptr, ...) @_ZN5Yosys3logEPKcz(ptr noundef @.str.4)
  call void (ptr, ...) @_ZN5Yosys3logEPKcz(ptr noundef @.str.5)
  call void (ptr, ...) @_ZN5Yosys3logEPKcz(ptr noundef @.str.4)
  call void (ptr, ...) @_ZN5Yosys3logEPKcz(ptr noundef @.str.6)
  call void (ptr, ...) @_ZN5Yosys3logEPKcz(ptr noundef @.str.7)
  call void (ptr, ...) @_ZN5Yosys3logEPKcz(ptr noundef @.str.8)
  call void (ptr, ...) @_ZN5Yosys3logEPKcz(ptr noundef @.str.9)
  call void (ptr, ...) @_ZN5Yosys3logEPKcz(ptr noundef @.str.10)
  call void (ptr, ...) @_ZN5Yosys3logEPKcz(ptr noundef @.str.4)
  call void (ptr, ...) @_ZN5Yosys3logEPKcz(ptr noundef @.str.11)
  call void (ptr, ...) @_ZN5Yosys3logEPKcz(ptr noundef @.str.12)
  call void (ptr, ...) @_ZN5Yosys3logEPKcz(ptr noundef @.str.13)
  call void (ptr, ...) @_ZN5Yosys3logEPKcz(ptr noundef @.str.4)
  call void (ptr, ...) @_ZN5Yosys3logEPKcz(ptr noundef @.str.14)
  call void (ptr, ...) @_ZN5Yosys3logEPKcz(ptr noundef @.str.15)
  call void (ptr, ...) @_ZN5Yosys3logEPKcz(ptr noundef @.str.16)
  call void (ptr, ...) @_ZN5Yosys3logEPKcz(ptr noundef @.str.4)
  ret void
}